


ARM Macro Assembler    Page 1 


    1 00000000         ; generated by Component: ARM Compiler 5.06 update 4 (bu
                       ild 422) Tool: ArmCC [4d3604]
    2 00000000         ; commandline ArmCC [--c99 --split_sections --debug -c -
                       S -o.\objects\main.s --depend=.\objects\main.d --cpu=Cor
                       tex-M3 --apcs=interwork -O0 --diag_suppress=9931 -I.\RTE
                       \Device\STM32F103RB -I.\RTE\_Target_1 -IC:\Keil_v5\ARM\P
                       ACK\ARM\CMSIS\5.8.0\CMSIS\Core\Include -IC:\Keil_v5\ARM\
                       PACK\Keil\MDK-Middleware\7.13.0\Board -IC:\Keil_v5\ARM\P
                       ACK\Keil\STM32F1xx_DFP\2.3.0\Device\Include -D__UVISION_
                       VERSION=523 -D_RTE_ -DSTM32F10X_MD --omf_browse=.\object
                       s\main.crf main.c]
    3 00000000                 THUMB
    4 00000000                 REQUIRE8
    5 00000000                 PRESERVE8
    6 00000000         
    7 00000000                 AREA             ||i.core_dump||, CODE, READONLY
, ALIGN=2
    8 00000000         
    9 00000000                 REQUIRE          _printf_percent
   10 00000000                 REQUIRE          _printf_p
   11 00000000                 REQUIRE          _printf_longlong_hex
   12 00000000                 REQUIRE          _printf_pre_padding
   13 00000000                 REQUIRE          _printf_flags
   14 00000000                 REQUIRE          _printf_widthprec
   15 00000000                 REQUIRE          _printf_x
   16 00000000         core_dump
                               PROC
   17 00000000 B510            PUSH             {r4,lr}
   18 00000002 4604            MOV              r4,r0
   19 00000004 4621            MOV              r1,r4
   20 00000006 A03A            ADR              r0,|L0.240|
   21 00000008 F7FF FFFE       BL               __2printf
   22 0000000C A03E            ADR              r0,|L0.264|
   23 0000000E F7FF FFFE       BL               __2printf
   24 00000012 A03F            ADR              r0,|L0.272|
   25 00000014 6A21            LDR              r1,[r4,#0x20]
   26 00000016 F7FF FFFE       BL               __2printf
   27 0000001A A03F            ADR              r0,|L0.280|
   28 0000001C F7FF FFFE       BL               __2printf
   29 00000020 A03B            ADR              r0,|L0.272|
   30 00000022 6A61            LDR              r1,[r4,#0x24]
   31 00000024 F7FF FFFE       BL               __2printf
   32 00000028 A03D            ADR              r0,|L0.288|
   33 0000002A F7FF FFFE       BL               __2printf
   34 0000002E A038            ADR              r0,|L0.272|
   35 00000030 6AA1            LDR              r1,[r4,#0x28]
   36 00000032 F7FF FFFE       BL               __2printf
   37 00000036 A03C            ADR              r0,|L0.296|
   38 00000038 F7FF FFFE       BL               __2printf
   39 0000003C A034            ADR              r0,|L0.272|
   40 0000003E 6AE1            LDR              r1,[r4,#0x2c]
   41 00000040 F7FF FFFE       BL               __2printf
   42 00000044 A03A            ADR              r0,|L0.304|
   43 00000046 F7FF FFFE       BL               __2printf
   44 0000004A A03B            ADR              r0,|L0.312|
   45 0000004C 6821            LDR              r1,[r4,#0]
   46 0000004E F7FF FFFE       BL               __2printf
   47 00000052 A03B            ADR              r0,|L0.320|
   48 00000054 F7FF FFFE       BL               __2printf



ARM Macro Assembler    Page 2 


   49 00000058 A02D            ADR              r0,|L0.272|
   50 0000005A 6861            LDR              r1,[r4,#4]
   51 0000005C F7FF FFFE       BL               __2printf
   52 00000060 A039            ADR              r0,|L0.328|
   53 00000062 F7FF FFFE       BL               __2printf
   54 00000066 A02A            ADR              r0,|L0.272|
   55 00000068 68A1            LDR              r1,[r4,#8]
   56 0000006A F7FF FFFE       BL               __2printf
   57 0000006E A038            ADR              r0,|L0.336|
   58 00000070 F7FF FFFE       BL               __2printf
   59 00000074 A026            ADR              r0,|L0.272|
   60 00000076 68E1            LDR              r1,[r4,#0xc]
   61 00000078 F7FF FFFE       BL               __2printf
   62 0000007C A036            ADR              r0,|L0.344|
   63 0000007E F7FF FFFE       BL               __2printf
   64 00000082 A023            ADR              r0,|L0.272|
   65 00000084 6921            LDR              r1,[r4,#0x10]
   66 00000086 F7FF FFFE       BL               __2printf
   67 0000008A A035            ADR              r0,|L0.352|
   68 0000008C F7FF FFFE       BL               __2printf
   69 00000090 A029            ADR              r0,|L0.312|
   70 00000092 6961            LDR              r1,[r4,#0x14]
   71 00000094 F7FF FFFE       BL               __2printf
   72 00000098 A033            ADR              r0,|L0.360|
   73 0000009A F7FF FFFE       BL               __2printf
   74 0000009E A01C            ADR              r0,|L0.272|
   75 000000A0 69A1            LDR              r1,[r4,#0x18]
   76 000000A2 F7FF FFFE       BL               __2printf
   77 000000A6 A032            ADR              r0,|L0.368|
   78 000000A8 F7FF FFFE       BL               __2printf
   79 000000AC A018            ADR              r0,|L0.272|
   80 000000AE 69E1            LDR              r1,[r4,#0x1c]
   81 000000B0 F7FF FFFE       BL               __2printf
   82 000000B4 A030            ADR              r0,|L0.376|
   83 000000B6 F7FF FFFE       BL               __2printf
   84 000000BA A01F            ADR              r0,|L0.312|
   85 000000BC 6B21            LDR              r1,[r4,#0x30]
   86 000000BE F7FF FFFE       BL               __2printf
   87 000000C2 A02F            ADR              r0,|L0.384|
   88 000000C4 F7FF FFFE       BL               __2printf
   89 000000C8 A011            ADR              r0,|L0.272|
   90 000000CA 6B61            LDR              r1,[r4,#0x34]
   91 000000CC F7FF FFFE       BL               __2printf
   92 000000D0 A02D            ADR              r0,|L0.392|
   93 000000D2 F7FF FFFE       BL               __2printf
   94 000000D6 A00E            ADR              r0,|L0.272|
   95 000000D8 6BA1            LDR              r1,[r4,#0x38]
   96 000000DA F7FF FFFE       BL               __2printf
   97 000000DE A02C            ADR              r0,|L0.400|
   98 000000E0 F7FF FFFE       BL               __2printf
   99 000000E4 A014            ADR              r0,|L0.312|
  100 000000E6 6BE1            LDR              r1,[r4,#0x3c]
  101 000000E8 F7FF FFFE       BL               __2printf
  102 000000EC BD10            POP              {r4,pc}
  103 000000EE                 ENDP
  104 000000EE         
  105 000000EE 00 00           DCW              0x0000
  106 000000F0         |L0.240|
  107 000000F0 65 78 63 



ARM Macro Assembler    Page 3 


              65 70 74 
              69 6F 6E 
              20 66 72 
              61 6D 65 
              20 61 74 
              20 25 70 
              0A 00            DCB              "exception frame at %p\n",0
  108 00000107 00              DCB              0
  109 00000108         |L0.264|
  110 00000108 72 30 20 
              20 30 78 
              00               DCB              "r0  0x",0
  111 0000010F 00              DCB              0
  112 00000110         |L0.272|
  113 00000110 25 30 38 
              78 20 20 
              00               DCB              "%08x  ",0
  114 00000117 00              DCB              0
  115 00000118         |L0.280|
  116 00000118 72 31 20 
              20 30 78 
              00               DCB              "r1  0x",0
  117 0000011F 00              DCB              0
  118 00000120         |L0.288|
  119 00000120 72 32 20 
              20 30 78 
              00               DCB              "r2  0x",0
  120 00000127 00              DCB              0
  121 00000128         |L0.296|
  122 00000128 72 33 20 
              20 30 78 
              00               DCB              "r3  0x",0
  123 0000012F 00              DCB              0
  124 00000130         |L0.304|
  125 00000130 72 34 20 
              20 30 78 
              00               DCB              "r4  0x",0
  126 00000137 00              DCB              0
  127 00000138         |L0.312|
  128 00000138 25 30 38 
              78 0A 00         DCB              "%08x\n",0
  129 0000013E 00              DCB              0
  130 0000013F 00              DCB              0
  131 00000140         |L0.320|
  132 00000140 72 35 20 
              20 30 78 
              00               DCB              "r5  0x",0
  133 00000147 00              DCB              0
  134 00000148         |L0.328|
  135 00000148 72 36 20 
              20 30 78 
              00               DCB              "r6  0x",0
  136 0000014F 00              DCB              0
  137 00000150         |L0.336|
  138 00000150 72 37 20 
              20 30 78 
              00               DCB              "r7  0x",0
  139 00000157 00              DCB              0
  140 00000158         |L0.344|



ARM Macro Assembler    Page 4 


  141 00000158 72 38 20 
              20 30 78 
              00               DCB              "r8  0x",0
  142 0000015F 00              DCB              0
  143 00000160         |L0.352|
  144 00000160 72 39 20 
              20 30 78 
              00               DCB              "r9  0x",0
  145 00000167 00              DCB              0
  146 00000168         |L0.360|
  147 00000168 72 31 30 
              20 30 78 
              00               DCB              "r10 0x",0
  148 0000016F 00              DCB              0
  149 00000170         |L0.368|
  150 00000170 72 31 31 
              20 30 78 
              00               DCB              "r11 0x",0
  151 00000177 00              DCB              0
  152 00000178         |L0.376|
  153 00000178 72 31 32 
              20 30 78 
              00               DCB              "r12 0x",0
  154 0000017F 00              DCB              0
  155 00000180         |L0.384|
  156 00000180 6C 72 20 
              20 30 78 
              00               DCB              "lr  0x",0
  157 00000187 00              DCB              0
  158 00000188         |L0.392|
  159 00000188 70 63 20 
              20 30 78 
              00               DCB              "pc  0x",0
  160 0000018F 00              DCB              0
  161 00000190         |L0.400|
  162 00000190 70 73 72 
              20 30 78 
              00               DCB              "psr 0x",0
  163 00000197 00              DCB              0
  164 00000198         
  165 00000198                 AREA             ||i.main||, CODE, READONLY, ALI
GN=1
  166 00000000         
  167 00000000         main    PROC
  168 00000000 F7FF FFFE       BL               trigger_unaligned_mem_access
  169 00000004 BF00            NOP
  170 00000006         |L1.6|
  171 00000006 E7FE            B                |L1.6|
  172 00000008                 ENDP
  173 00000008         
  174 00000008         
  175 00000008                 AREA             ||i.trigger_unaligned_mem_acces
s||, CODE, READONLY, ALIGN=2
  176 00000000         
  177 00000000         trigger_unaligned_mem_access
                               PROC
  178 00000000 B538            PUSH             {r3-r5,lr}
  179 00000002 4C08            LDR              r4,|L2.36|
  180 00000004 6820            LDR              r0,[r4,#0]



ARM Macro Assembler    Page 5 


  181 00000006 F040 0008       ORR              r0,r0,#8
  182 0000000A 6020            STR              r0,[r4,#0]
  183 0000000C F3BF 8F6F       ISB
  184 00000010 2001            MOVS             r0,#1
  185 00000012 9000            STR              r0,[sp,#0]
  186 00000014 F10D 0501       ADD              r5,sp,#1
  187 00000018 2002            MOVS             r0,#2
  188 0000001A 6028            STR              r0,[r5,#0]
  189 0000001C A002            ADR              r0,|L2.40|
  190 0000001E F7FF FFFE       BL               __2printf
  191 00000022 BD38            POP              {r3-r5,pc}
  192 00000024                 ENDP
  193 00000024         
  194 00000024         |L2.36|
  195 00000024 E000ED14        DCD              0xe000ed14
  196 00000028         |L2.40|
  197 00000028 74 72 61 
              70 20 55 
              4E 41 4C 
              49 47 4E 
              5F 54 52 
              50 00            DCB              "trap UNALIGN_TRP",0
  198 00000039 00              DCB              0
  199 0000003A 00              DCB              0
  200 0000003B 00              DCB              0
  201 0000003C         
  202 0000003C                 AREA             ||.arm_vfe_header||, DATA, READ
ONLY, NOALLOC, ALIGN=2
  203 00000000         
  204 00000000 00000000        DCD              0x00000000
  205 00000004         
  206 00000004         ;*** Start embedded assembler ***
  207 00000004         
  208 00000004         #line   1                "main.c"
    1 00000004                 AREA             ||.emb_text||, CODE
    2 00000000                 THUMB
    3 00000000                 EXPORT           |HardFault_Handler|
    4 00000000         #line   67
   67 00000000         |HardFault_Handler|
                               PROC
   68 00000000         #line   68
   68 00000000         
   69 00000000         
   70 00000000 F84D BD04       PUSH             {R11}
   71 00000004 F84D AD04       PUSH             {R10}
   72 00000008 F84D 9D04       PUSH             {R9}
   73 0000000C F84D 8D04       PUSH             {R8}
   74 00000010 B480            PUSH             {R7}
   75 00000012 B440            PUSH             {R6}
   76 00000014 B420            PUSH             {R5}
   77 00000016 B410            PUSH             {R4}
   78 00000018 4668            MOV              R0, SP
   79 0000001A F7FF FFFE       BL               core_dump
   80 0000001E                 ENDP
   81 0000001E         
   82 0000001E         ;*** End   embedded assembler ***
   83 0000001E         
   84 0000001E 00000000 
                       __ARM_use_no_argv



ARM Macro Assembler    Page 6 


                               EQU              0
   85 0000001E         
   86 0000001E                 EXPORT           __ARM_use_no_argv
   87 0000001E                 EXPORT           core_dump [CODE]
   88 0000001E                 EXPORT           main [CODE]
   89 0000001E         
   90 0000001E                 IMPORT           ||Lib$$Request$$armlib|| [CODE,
WEAK]
   91 0000001E                 IMPORT           _printf_percent [CODE]
   92 0000001E                 IMPORT           _printf_p [CODE]
   93 0000001E                 IMPORT           _printf_longlong_hex [CODE]
   94 0000001E                 IMPORT           __2printf [CODE]
   95 0000001E                 IMPORT           _printf_pre_padding [CODE]
   96 0000001E                 IMPORT           _printf_flags [CODE]
   97 0000001E                 IMPORT           _printf_widthprec [CODE]
   98 0000001E                 IMPORT           _printf_x [CODE]
   99 0000001E         
  100 0000001E                 KEEP             trigger_unaligned_mem_access
  101 0000001E         
  102 0000001E                 ATTR             FILESCOPE
  103 0000001E                 ATTR             SETVALUE Tag_ABI_PCS_wchar_t,2
  104 0000001E                 ATTR             SETVALUE Tag_ABI_enum_size,1
  105 0000001E                 ATTR             SETVALUE Tag_ABI_optimization_g
oals,6
  106 0000001E                 ATTR             SETSTRING Tag_conformance,"2.09
"
  107 0000001E                 ATTR             SETVALUE AV,18,1
  108 0000001E         
  109 0000001E                 ASSERT           {ENDIAN} = "little"
  110 0000001E                 ASSERT           {INTER} = {TRUE}
  111 0000001E                 ASSERT           {ROPI} = {FALSE}
  112 0000001E                 ASSERT           {RWPI} = {FALSE}
  113 0000001E                 ASSERT           {IEEE_FULL} = {FALSE}
  114 0000001E                 ASSERT           {IEEE_PART} = {FALSE}
  115 0000001E                 ASSERT           {IEEE_JAVA} = {FALSE}
  116 0000001E                 END
Command Line: --debug --xref --diag_suppress=9931 --cpu=Cortex-M3 --apcs=interw
ork -o.\objects\main.o -I.\RTE\Device\STM32F103RB -I.\RTE\_Target_1 -IC:\Keil_v
5\ARM\PACK\ARM\CMSIS\5.8.0\CMSIS\Core\Include -IC:\Keil_v5\ARM\PACK\Keil\MDK-Mi
ddleware\7.13.0\Board -IC:\Keil_v5\ARM\PACK\Keil\STM32F1xx_DFP\2.3.0\Device\Inc
lude --predefine="__UVISION_VERSION SETA 523" --predefine="_RTE_ SETA 1" --pred
efine="STM32F10X_MD SETA 1" --list=.\listings\main.lst .\objects\main.s



ARM Macro Assembler    Page 1 Alphabetic symbol ordering
Relocatable symbols

L0.240 000000F0

Symbol: L0.240
   Definitions
      At line 106 in file .\objects\main.s
   Uses
      At line 20 in file .\objects\main.s
Comment: L0.240 used once
L0.264 00000108

Symbol: L0.264
   Definitions
      At line 109 in file .\objects\main.s
   Uses
      At line 22 in file .\objects\main.s
Comment: L0.264 used once
L0.272 00000110

Symbol: L0.272
   Definitions
      At line 112 in file .\objects\main.s
   Uses
      At line 24 in file .\objects\main.s
      At line 29 in file .\objects\main.s
      At line 34 in file .\objects\main.s
      At line 39 in file .\objects\main.s
      At line 49 in file .\objects\main.s
      At line 54 in file .\objects\main.s
      At line 59 in file .\objects\main.s
      At line 64 in file .\objects\main.s
      At line 74 in file .\objects\main.s
      At line 79 in file .\objects\main.s
      At line 89 in file .\objects\main.s
      At line 94 in file .\objects\main.s

L0.280 00000118

Symbol: L0.280
   Definitions
      At line 115 in file .\objects\main.s
   Uses
      At line 27 in file .\objects\main.s
Comment: L0.280 used once
L0.288 00000120

Symbol: L0.288
   Definitions
      At line 118 in file .\objects\main.s
   Uses
      At line 32 in file .\objects\main.s
Comment: L0.288 used once
L0.296 00000128

Symbol: L0.296
   Definitions
      At line 121 in file .\objects\main.s
   Uses
      At line 37 in file .\objects\main.s
Comment: L0.296 used once



ARM Macro Assembler    Page 2 Alphabetic symbol ordering
Relocatable symbols

L0.304 00000130

Symbol: L0.304
   Definitions
      At line 124 in file .\objects\main.s
   Uses
      At line 42 in file .\objects\main.s
Comment: L0.304 used once
L0.312 00000138

Symbol: L0.312
   Definitions
      At line 127 in file .\objects\main.s
   Uses
      At line 44 in file .\objects\main.s
      At line 69 in file .\objects\main.s
      At line 84 in file .\objects\main.s
      At line 99 in file .\objects\main.s

L0.320 00000140

Symbol: L0.320
   Definitions
      At line 131 in file .\objects\main.s
   Uses
      At line 47 in file .\objects\main.s
Comment: L0.320 used once
L0.328 00000148

Symbol: L0.328
   Definitions
      At line 134 in file .\objects\main.s
   Uses
      At line 52 in file .\objects\main.s
Comment: L0.328 used once
L0.336 00000150

Symbol: L0.336
   Definitions
      At line 137 in file .\objects\main.s
   Uses
      At line 57 in file .\objects\main.s
Comment: L0.336 used once
L0.344 00000158

Symbol: L0.344
   Definitions
      At line 140 in file .\objects\main.s
   Uses
      At line 62 in file .\objects\main.s
Comment: L0.344 used once
L0.352 00000160

Symbol: L0.352
   Definitions
      At line 143 in file .\objects\main.s
   Uses
      At line 67 in file .\objects\main.s
Comment: L0.352 used once



ARM Macro Assembler    Page 3 Alphabetic symbol ordering
Relocatable symbols

L0.360 00000168

Symbol: L0.360
   Definitions
      At line 146 in file .\objects\main.s
   Uses
      At line 72 in file .\objects\main.s
Comment: L0.360 used once
L0.368 00000170

Symbol: L0.368
   Definitions
      At line 149 in file .\objects\main.s
   Uses
      At line 77 in file .\objects\main.s
Comment: L0.368 used once
L0.376 00000178

Symbol: L0.376
   Definitions
      At line 152 in file .\objects\main.s
   Uses
      At line 82 in file .\objects\main.s
Comment: L0.376 used once
L0.384 00000180

Symbol: L0.384
   Definitions
      At line 155 in file .\objects\main.s
   Uses
      At line 87 in file .\objects\main.s
Comment: L0.384 used once
L0.392 00000188

Symbol: L0.392
   Definitions
      At line 158 in file .\objects\main.s
   Uses
      At line 92 in file .\objects\main.s
Comment: L0.392 used once
L0.400 00000190

Symbol: L0.400
   Definitions
      At line 161 in file .\objects\main.s
   Uses
      At line 97 in file .\objects\main.s
Comment: L0.400 used once
core_dump 00000000

Symbol: core_dump
   Definitions
      At line 16 in file .\objects\main.s
   Uses
      At line 79 in file main.c
      At line 87 in file main.c

|i.core_dump| 00000000




ARM Macro Assembler    Page 4 Alphabetic symbol ordering
Relocatable symbols

Symbol: |i.core_dump|
   Definitions
      At line 7 in file .\objects\main.s
   Uses
      None
Comment: |i.core_dump| unused
21 symbols



ARM Macro Assembler    Page 1 Alphabetic symbol ordering
Relocatable symbols

L1.6 00000006

Symbol: L1.6
   Definitions
      At line 170 in file .\objects\main.s
   Uses
      At line 171 in file .\objects\main.s
Comment: L1.6 used once
main 00000000

Symbol: main
   Definitions
      At line 167 in file .\objects\main.s
   Uses
      At line 88 in file main.c
Comment: main used once
|i.main| 00000000

Symbol: |i.main|
   Definitions
      At line 165 in file .\objects\main.s
   Uses
      None
Comment: |i.main| unused
3 symbols



ARM Macro Assembler    Page 1 Alphabetic symbol ordering
Relocatable symbols

L2.36 00000024

Symbol: L2.36
   Definitions
      At line 194 in file .\objects\main.s
   Uses
      At line 179 in file .\objects\main.s
Comment: L2.36 used once
L2.40 00000028

Symbol: L2.40
   Definitions
      At line 196 in file .\objects\main.s
   Uses
      At line 189 in file .\objects\main.s
Comment: L2.40 used once
trigger_unaligned_mem_access 00000000

Symbol: trigger_unaligned_mem_access
   Definitions
      At line 177 in file .\objects\main.s
   Uses
      At line 168 in file .\objects\main.s
      At line 100 in file main.c

|i.trigger_unaligned_mem_access| 00000000

Symbol: |i.trigger_unaligned_mem_access|
   Definitions
      At line 175 in file .\objects\main.s
   Uses
      None
Comment: |i.trigger_unaligned_mem_access| unused
4 symbols



ARM Macro Assembler    Page 1 Alphabetic symbol ordering
Relocatable symbols

|.arm_vfe_header| 00000000

Symbol: |.arm_vfe_header|
   Definitions
      At line 202 in file .\objects\main.s
   Uses
      None
Comment: |.arm_vfe_header| unused
1 symbol



ARM Macro Assembler    Page 1 Alphabetic symbol ordering
Relocatable symbols

HardFault_Handler 00000000

Symbol: HardFault_Handler
   Definitions
      At line 67 in file main.c
   Uses
      At line 3 in file main.c
Comment: HardFault_Handler used once
|.emb_text| 00000000

Symbol: |.emb_text|
   Definitions
      At line 1 in file main.c
   Uses
      None
Comment: |.emb_text| unused
2 symbols



ARM Macro Assembler    Page 1 Alphabetic symbol ordering
Absolute symbols

__ARM_use_no_argv 00000000

Symbol: __ARM_use_no_argv
   Definitions
      At line 84 in file main.c
   Uses
      At line 86 in file main.c
Comment: __ARM_use_no_argv used once
1 symbol



ARM Macro Assembler    Page 1 Alphabetic symbol ordering
External symbols

__2printf 00000000

Symbol: __2printf
   Definitions
      At line 94 in file main.c
   Uses
      At line 21 in file .\objects\main.s
      At line 23 in file .\objects\main.s
      At line 26 in file .\objects\main.s
      At line 28 in file .\objects\main.s
      At line 31 in file .\objects\main.s
      At line 33 in file .\objects\main.s
      At line 36 in file .\objects\main.s
      At line 38 in file .\objects\main.s
      At line 41 in file .\objects\main.s
      At line 43 in file .\objects\main.s
      At line 46 in file .\objects\main.s
      At line 48 in file .\objects\main.s
      At line 51 in file .\objects\main.s
      At line 53 in file .\objects\main.s
      At line 56 in file .\objects\main.s
      At line 58 in file .\objects\main.s
      At line 61 in file .\objects\main.s
      At line 63 in file .\objects\main.s
      At line 66 in file .\objects\main.s
      At line 68 in file .\objects\main.s
      At line 71 in file .\objects\main.s
      At line 73 in file .\objects\main.s
      At line 76 in file .\objects\main.s
      At line 78 in file .\objects\main.s
      At line 81 in file .\objects\main.s
      At line 83 in file .\objects\main.s
      At line 86 in file .\objects\main.s
      At line 88 in file .\objects\main.s
      At line 91 in file .\objects\main.s
      At line 93 in file .\objects\main.s
      At line 96 in file .\objects\main.s
      At line 98 in file .\objects\main.s
      At line 101 in file .\objects\main.s
      At line 190 in file .\objects\main.s

_printf_flags 00000000

Symbol: _printf_flags
   Definitions
      At line 96 in file main.c
   Uses
      At line 13 in file .\objects\main.s
Comment: _printf_flags used once
_printf_longlong_hex 00000000

Symbol: _printf_longlong_hex
   Definitions
      At line 93 in file main.c
   Uses
      At line 11 in file .\objects\main.s
Comment: _printf_longlong_hex used once
_printf_p 00000000




ARM Macro Assembler    Page 2 Alphabetic symbol ordering
External symbols

Symbol: _printf_p
   Definitions
      At line 92 in file main.c
   Uses
      At line 10 in file .\objects\main.s
Comment: _printf_p used once
_printf_percent 00000000

Symbol: _printf_percent
   Definitions
      At line 91 in file main.c
   Uses
      At line 9 in file .\objects\main.s
Comment: _printf_percent used once
_printf_pre_padding 00000000

Symbol: _printf_pre_padding
   Definitions
      At line 95 in file main.c
   Uses
      At line 12 in file .\objects\main.s
Comment: _printf_pre_padding used once
_printf_widthprec 00000000

Symbol: _printf_widthprec
   Definitions
      At line 97 in file main.c
   Uses
      At line 14 in file .\objects\main.s
Comment: _printf_widthprec used once
_printf_x 00000000

Symbol: _printf_x
   Definitions
      At line 98 in file main.c
   Uses
      At line 15 in file .\objects\main.s
Comment: _printf_x used once
|Lib$$Request$$armlib| 00000000

Symbol: |Lib$$Request$$armlib|
   Definitions
      At line 90 in file main.c
   Uses
      None
Comment: |Lib$$Request$$armlib| unused
9 symbols
374 symbols in table
